target datalayout = "e-m:e-p270:32:32-p271:32:32-p272:64:64-i64:64-i128:128-f80:128-n8:16:32:64-S128"
target triple = "x86_64-pc-linux-gnu"

%struct.acct_gather_energy = type { i32, i64, i64, i32, i64, i64, i64 }

@plugin_name = dso_local constant [36 x i8] c"AcctGatherEnergy pm_counters plugin\00", align 16
@plugin_type = dso_local constant [31 x i8] c"acct_gather_energy/pm_counters\00", align 16
@local_energy = internal global ptr null, align 8
@acct_gather_energy_p_conf_set.flag_init = internal global i8 0, align 1
@.str.3 = private unnamed_addr constant [18 x i8] c"%s: %s: %s loaded\00", align 1
@__func__.acct_gather_energy_p_conf_set = private unnamed_addr constant [30 x i8] c"acct_gather_energy_p_conf_set\00", align 1

; Function Attrs: nounwind uwtable
define dso_local void @acct_gather_energy_p_conf_set(i32 noundef %0, ptr noundef %1) #0 {
  %3 = alloca i32, align 4
  %4 = alloca ptr, align 8
  store i32 %0, ptr %3, align 4
  store ptr %1, ptr %4, align 8
  %5 = call zeroext i1 @slurm_running_in_slurmd_stepd()
  br i1 %5, label %7, label %6

6:                                                ; preds = %2
  br label %33

7:                                                ; preds = %2
  %8 = load ptr, ptr @local_energy, align 8
  %9 = icmp ne ptr %8, null
  br i1 %9, label %10, label %11

10:                                               ; preds = %7
  br label %33

11:                                               ; preds = %7
  %12 = load i8, ptr @acct_gather_energy_p_conf_set.flag_init, align 1, !range !8, !noundef !9
  %13 = trunc i8 %12 to i1
  br i1 %13, label %24, label %14

14:                                               ; preds = %11
  store i8 1, ptr @acct_gather_energy_p_conf_set.flag_init, align 1
  %15 = call ptr @acct_gather_energy_alloc(i16 noundef zeroext 1)
  store ptr %15, ptr @local_energy, align 8
  %16 = call i64 @_get_latest_stats(i32 noundef 0)
  %17 = icmp ne i64 %16, 0
  br i1 %17, label %21, label %18

18:                                               ; preds = %14
  %19 = load ptr, ptr @local_energy, align 8
  %20 = getelementptr inbounds nuw %struct.acct_gather_energy, ptr %19, i32 0, i32 3
  store i32 -2, ptr %20, align 8
  br label %23

21:                                               ; preds = %14
  %22 = load ptr, ptr @local_energy, align 8
  call void @_get_joules_task(ptr noundef %22)
  br label %23

23:                                               ; preds = %21, %18
  br label %24

24:                                               ; preds = %23, %11
  br label %25

25:                                               ; preds = %24
  br label %26

26:                                               ; preds = %25
  %27 = call i32 @slurm_get_log_level()
  %28 = icmp sge i32 %27, 5
  br i1 %28, label %29, label %30

29:                                               ; preds = %26
  call void (i32, ptr, ...) @slurm_log_var(i32 noundef 5, ptr noundef @.str.3, ptr noundef @plugin_type, ptr noundef @__func__.acct_gather_energy_p_conf_set, ptr noundef @plugin_name)
  br label %30

30:                                               ; preds = %29, %26
  br label %31

31:                                               ; preds = %30
  br label %32

32:                                               ; preds = %31
  br label %33

33:                                               ; preds = %32, %10, %6
  ret void
}