; Function Attrs: nounwind uwtable
define dso_local void @acct_gather_energy_p_conf_set(i32 %0, ptr readnone captures(none) %1) local_unnamed_addr #0 {
  %3 = tail call zeroext i1 @slurm_running_in_slurmd_stepd() #8
  %4 = load ptr, ptr @local_energy, align 8
  %5 = icmp eq ptr %4, null
  %or.cond.not = select i1 %3, i1 %5, i1 false
  br i1 %or.cond.not, label %6, label %18

6:                                                ; preds = %2
  %.b3 = load i1, ptr @acct_gather_energy_p_conf_set.flag_init, align 1
  br i1 %.b3, label %14, label %7

7:                                                ; preds = %6
  store i1 true, ptr @acct_gather_energy_p_conf_set.flag_init, align 1
  %8 = tail call ptr @acct_gather_energy_alloc(i16 noundef zeroext 1) #8
  store ptr %8, ptr @local_energy, align 8
  %9 = tail call fastcc i64 @_get_latest_stats(i32 noundef 0)
  %.not = icmp eq i64 %9, 0
  %10 = load ptr, ptr @local_energy, align 8
  br i1 %.not, label %11, label %13

11:                                               ; preds = %7
  %12 = getelementptr inbounds nuw i8, ptr %10, i64 24
  store i32 -2, ptr %12, align 8
  br label %14

13:                                               ; preds = %7
  tail call fastcc void @_get_joules_task(ptr noundef %10)
  br label %14

14:                                               ; preds = %11, %13, %6
  %15 = tail call i32 @slurm_get_log_level() #8
  %16 = icmp sgt i32 %15, 4
  br i1 %16, label %17, label %18

17:                                               ; preds = %14
  tail call void (i32, ptr, ...) @slurm_log_var(i32 noundef 5, ptr noundef nonnull @.str.3, ptr noundef nonnull @plugin_type, ptr noundef nonnull @__func__.acct_gather_energy_p_conf_set, ptr noundef nonnull @plugin_name) #8
  br label %18

18:                                               ; preds = %14, %17, %2
  ret void
}